; Function Attrs: mustprogress nofree norecurse nosync nounwind willreturn memory(argmem: read) uwtable
define zeroext range(i8 0, 2) i8 @l_Lake_Log_isEmpty(ptr noundef readonly captures(none) %0) local_unnamed_addr #6 {
lean_dec.exit:
  %1 = getelementptr i8, ptr %0, i64 8
  %.val = load i64, ptr %1, align 8, !tbaa !16
  %.mask = and i64 %.val, 9223372036854775807
  %2 = icmp eq i64 %.mask, 0
  %3 = zext i1 %2 to i8
  ret i8 %3
}